; Function Attrs: mustprogress nounwind uwtable
define hidden void @_ZN9JavaCalls11call_staticEP9JavaValueP5KlassP6SymbolS5_6HandleS6_P10JavaThread(ptr noundef %0, ptr noundef %1, ptr noundef %2, ptr noundef %3, ptr %4, ptr %5, ptr noundef %6) local_unnamed_addr #0 align 2 {
  %8 = alloca %class.JavaCallArguments, align 8
  %9 = getelementptr inbounds i8, ptr %8, i64 120
  store ptr null, ptr %9, align 8
  %10 = getelementptr inbounds i8, ptr %8, i64 8
  %11 = getelementptr inbounds i8, ptr %8, i64 88
  store ptr %10, ptr %11, align 8
  %12 = getelementptr inbounds i8, ptr %8, i64 73
  %13 = getelementptr inbounds i8, ptr %8, i64 96
  store ptr %12, ptr %13, align 8
  %14 = getelementptr inbounds i8, ptr %8, i64 108
  store i32 8, ptr %14, align 4
  %15 = getelementptr inbounds i8, ptr %8, i64 104
  %16 = getelementptr inbounds i8, ptr %8, i64 112
  store i8 0, ptr %16, align 8
  store i8 2, ptr %12, align 1
  %17 = ptrtoint ptr %4 to i64
  store i64 %17, ptr %10, align 8
  %18 = getelementptr inbounds i8, ptr %8, i64 74
  store i8 2, ptr %18, align 2
  %19 = ptrtoint ptr %5 to i64
  store i32 2, ptr %15, align 8
  %20 = getelementptr inbounds i8, ptr %8, i64 16
  store i64 %19, ptr %20, align 8
  call void @_ZN9JavaCalls11call_staticEP9JavaValueP5KlassP6SymbolS5_P17JavaCallArgumentsP10JavaThread(ptr noundef %0, ptr noundef %1, ptr noundef %2, ptr noundef %3, ptr noundef nonnull %8, ptr noundef %6)
  ret void
}